target datalayout = "e-m:e-p270:32:32-p271:32:32-p272:64:64-i64:64-i128:128-f80:128-n8:16:32:64-S128"
target triple = "x86_64-pc-linux-gnu"

%struct.slurm_conf_t = type { i64, ptr, i16, ptr, ptr, ptr, ptr, ptr, i16, ptr, ptr, ptr, ptr, ptr, ptr, ptr, i16, ptr, ptr, ptr, ptr, i16, ptr, ptr, ptr, i64, ptr, ptr, ptr, ptr, i16, ptr, ptr, i16, i32, ptr, i32, ptr, i32, i32, ptr, ptr, i64, i64, ptr, i16, i16, ptr, i32, i32, ptr, i32, ptr, i32, i16, i16, i16, ptr, i16, i16, ptr, ptr, i32, i16, i16, ptr, i32, i16, ptr, ptr, ptr, ptr, i16, ptr, ptr, ptr, ptr, i32, ptr, ptr, ptr, ptr, i16, i16, ptr, i32, i32, i32, i16, i16, ptr, ptr, i16, ptr, ptr, i32, i32, i32, i32, i32, i64, i32, i32, i16, ptr, ptr, i32, ptr, ptr, ptr, i16, i32, ptr, ptr, i16, ptr, ptr, i32, i16, ptr, ptr, ptr, ptr, i32, i32, i16, i16, i32, ptr, i16, ptr, i32, i32, i32, i32, i32, i32, ptr, i16, ptr, ptr, i32, i16, ptr, i32, i16, i16, ptr, ptr, ptr, i16, ptr, ptr, ptr, ptr, i16, i16, ptr, i16, ptr, i16, ptr, i16, ptr, i16, ptr, ptr, ptr, ptr, i16, ptr, ptr, ptr, i32, ptr, i32, ptr, ptr, i16, ptr, ptr, i32, i16, ptr, ptr, i16, i16, ptr, i16, ptr, ptr, ptr, i32, ptr, i16, i16, ptr, ptr, ptr, ptr, ptr, ptr, ptr, ptr, i16, i32, i16, ptr, ptr, ptr, ptr, i32, ptr, ptr, ptr, i16, ptr, ptr, ptr, i16, ptr, i16, ptr, i16, i16, ptr }
%struct.xcgroup_t = type { ptr, ptr, ptr, i32, i32, i32 }
%struct.dirent = type { i64, i64, i16, i8, [256 x i8] }

@plugin_type = external constant [0 x i8], align 1
@slurm_conf = dso_local global %struct.slurm_conf_t zeroinitializer, align 8
@.str.22 = private unnamed_addr constant [22 x i8] c"invalid control group\00", align 1
@.str.23 = private unnamed_addr constant [54 x i8] c"%s: %s: CGROUP: Cannot rmdir(%s), cgroup is not empty\00", align 1
@__func__.common_cgroup_delete = private unnamed_addr constant [21 x i8] c"common_cgroup_delete\00", align 1
@.str.24 = private unnamed_addr constant [39 x i8] c"%s: %s: Not removing %s, found %d pids\00", align 1
@.str.25 = private unnamed_addr constant [56 x i8] c"%s: %s: CGROUP: Unable to rmdir(%s), did %d retries: %m\00", align 1
@.str.26 = private unnamed_addr constant [42 x i8] c"Unable to rmdir(%s), unexpected error: %m\00", align 1
@.str.27 = private unnamed_addr constant [80 x i8] c"%s: %s: CGROUP: rmdir(%s): took %d retries, possible cgroup filesystem slowness\00", align 1
@.str.45 = private unnamed_addr constant [2 x i8] c".\00", align 1
@.str.46 = private unnamed_addr constant [3 x i8] c"..\00", align 1
@.str.47 = private unnamed_addr constant [58 x i8] c"%s: %s: CGROUP: Found at least one child directory: %s/%s\00", align 1
@__func__._is_empty_dir = private unnamed_addr constant [14 x i8] c"_is_empty_dir\00", align 1

; Function Attrs: nounwind uwtable
define internal zeroext i1 @_is_empty_dir(ptr noundef %0) #0 {
  %2 = alloca i1, align 1
  %3 = alloca ptr, align 8
  %4 = alloca ptr, align 8
  %5 = alloca ptr, align 8
  %6 = alloca i8, align 1
  %7 = alloca i32, align 4
  store ptr %0, ptr %3, align 8
  call void @llvm.lifetime.start.p0(i64 8, ptr %4) #6
  call void @llvm.lifetime.start.p0(i64 8, ptr %5) #6
  call void @llvm.lifetime.start.p0(i64 1, ptr %6) #6
  store i8 1, ptr %6, align 1
  %8 = load ptr, ptr %3, align 8
  %9 = call ptr @opendir(ptr noundef %8)
  store ptr %9, ptr %4, align 8
  %10 = icmp ne ptr %9, null
  br i1 %10, label %14, label %11

11:                                               ; preds = %1
  %12 = load i8, ptr %6, align 1, !range !18, !noundef !19
  %13 = trunc i8 %12 to i1
  store i1 %13, ptr %2, align 1
  store i32 1, ptr %7, align 4
  br label %63

14:                                               ; preds = %1
  br label %15

15:                                               ; preds = %57, %14
  %16 = load ptr, ptr %4, align 8
  %17 = call ptr @readdir(ptr noundef %16)
  store ptr %17, ptr %5, align 8
  %18 = icmp ne ptr %17, null
  br i1 %18, label %19, label %58

19:                                               ; preds = %15
  %20 = load ptr, ptr %5, align 8
  %21 = getelementptr inbounds nuw %struct.dirent, ptr %20, i32 0, i32 3
  %22 = load i8, ptr %21, align 2
  %23 = zext i8 %22 to i32
  %24 = icmp eq i32 %23, 4
  br i1 %24, label %25, label %57

25:                                               ; preds = %19
  %26 = load ptr, ptr %5, align 8
  %27 = getelementptr inbounds nuw %struct.dirent, ptr %26, i32 0, i32 4
  %28 = getelementptr inbounds [256 x i8], ptr %27, i64 0, i64 0
  %29 = call i32 @strcmp(ptr noundef %28, ptr noundef @.str.45) #8
  %30 = icmp ne i32 %29, 0
  br i1 %30, label %31, label %57

31:                                               ; preds = %25
  %32 = load ptr, ptr %5, align 8
  %33 = getelementptr inbounds nuw %struct.dirent, ptr %32, i32 0, i32 4
  %34 = getelementptr inbounds [256 x i8], ptr %33, i64 0, i64 0
  %35 = call i32 @strcmp(ptr noundef %34, ptr noundef @.str.46) #8
  %36 = icmp ne i32 %35, 0
  br i1 %36, label %37, label %57

37:                                               ; preds = %31
  store i8 0, ptr %6, align 1
  br label %38

38:                                               ; preds = %37
  %39 = load i64, ptr getelementptr inbounds nuw (%struct.slurm_conf_t, ptr @slurm_conf, i32 0, i32 42), align 8
  %40 = and i64 %39, 36028797018963968
  %41 = icmp ne i64 %40, 0
  br i1 %41, label %42, label %54

42:                                               ; preds = %38
  br label %43

43:                                               ; preds = %42
  %44 = call i32 @get_log_level()
  %45 = icmp sge i32 %44, 4
  br i1 %45, label %46, label %51

46:                                               ; preds = %43
  %47 = load ptr, ptr %3, align 8
  %48 = load ptr, ptr %5, align 8
  %49 = getelementptr inbounds nuw %struct.dirent, ptr %48, i32 0, i32 4
  %50 = getelementptr inbounds [256 x i8], ptr %49, i64 0, i64 0
  call void (i32, ptr, ...) @log_var(i32 noundef 4, ptr noundef @.str.47, ptr noundef @plugin_type, ptr noundef @__func__._is_empty_dir, ptr noundef %47, ptr noundef %50)
  br label %51

51:                                               ; preds = %46, %43
  br label %52

52:                                               ; preds = %51
  br label %53

53:                                               ; preds = %52
  br label %54

54:                                               ; preds = %53, %38
  br label %55

55:                                               ; preds = %54
  br label %56

56:                                               ; preds = %55
  br label %58

57:                                               ; preds = %31, %25, %19
  br label %15, !llvm.loop !20

58:                                               ; preds = %56, %15
  %59 = load ptr, ptr %4, align 8
  %60 = call i32 @closedir(ptr noundef %59)
  %61 = load i8, ptr %6, align 1, !range !18, !noundef !19
  %62 = trunc i8 %61 to i1
  store i1 %62, ptr %2, align 1
  store i32 1, ptr %7, align 4
  br label %63

63:                                               ; preds = %58, %11
  call void @llvm.lifetime.end.p0(i64 1, ptr %6) #6
  call void @llvm.lifetime.end.p0(i64 8, ptr %5) #6
  call void @llvm.lifetime.end.p0(i64 8, ptr %4) #6
  %64 = load i1, ptr %2, align 1
  ret i1 %64
}

; Function Attrs: nounwind uwtable
define dso_local i32 @common_cgroup_delete(ptr noundef %0) #0 {
  %2 = alloca i32, align 4
  %3 = alloca ptr, align 8
  %4 = alloca i32, align 4
  %5 = alloca i32, align 4
  %6 = alloca ptr, align 8
  %7 = alloca i32, align 4
  store ptr %0, ptr %3, align 8
  call void @llvm.lifetime.start.p0(i64 4, ptr %4) #6
  store i32 0, ptr %4, align 4
  call void @llvm.lifetime.start.p0(i64 4, ptr %5) #6
  store i32 -1, ptr %5, align 4
  call void @llvm.lifetime.start.p0(i64 8, ptr %6) #6
  store ptr null, ptr %6, align 8
  %8 = load ptr, ptr %3, align 8
  %9 = icmp ne ptr %8, null
  br i1 %9, label %10, label %15

10:                                               ; preds = %1
  %11 = load ptr, ptr %3, align 8
  %12 = getelementptr inbounds nuw %struct.xcgroup_t, ptr %11, i32 0, i32 2
  %13 = load ptr, ptr %12, align 8
  %14 = icmp ne ptr %13, null
  br i1 %14, label %17, label %15

15:                                               ; preds = %10, %1
  %16 = call i32 (ptr, ...) @error(ptr noundef @.str.22)
  store i32 0, ptr %2, align 4
  store i32 1, ptr %7, align 4
  br label %142

17:                                               ; preds = %10
  br label %18

18:                                               ; preds = %88, %17
  %19 = load ptr, ptr %3, align 8
  %20 = getelementptr inbounds nuw %struct.xcgroup_t, ptr %19, i32 0, i32 2
  %21 = load ptr, ptr %20, align 8
  %22 = call i32 @rmdir(ptr noundef %21) #6
  %23 = icmp slt i32 %22, 0
  br i1 %23, label %24, label %28

24:                                               ; preds = %18
  %25 = call ptr @__errno_location() #7
  %26 = load i32, ptr %25, align 4
  %27 = icmp ne i32 %26, 2
  br label %28

28:                                               ; preds = %24, %18
  %29 = phi i1 [ false, %18 ], [ %27, %24 ]
  br i1 %29, label %30, label %118

30:                                               ; preds = %28
  %31 = call ptr @__errno_location() #7
  %32 = load i32, ptr %31, align 4
  %33 = icmp eq i32 %32, 16
  br i1 %33, label %34, label %112

34:                                               ; preds = %30
  %35 = load ptr, ptr %3, align 8
  %36 = getelementptr inbounds nuw %struct.xcgroup_t, ptr %35, i32 0, i32 2
  %37 = load ptr, ptr %36, align 8
  %38 = call zeroext i1 @_is_empty_dir(ptr noundef %37)
  br i1 %38, label %58, label %39

39:                                               ; preds = %34
  br label %40

40:                                               ; preds = %39
  %41 = load i64, ptr getelementptr inbounds nuw (%struct.slurm_conf_t, ptr @slurm_conf, i32 0, i32 42), align 8
  %42 = and i64 %41, 36028797018963968
  %43 = icmp ne i64 %42, 0
  br i1 %43, label %44, label %55

44:                                               ; preds = %40
  br label %45

45:                                               ; preds = %44
  %46 = call i32 @get_log_level()
  %47 = icmp sge i32 %46, 4
  br i1 %47, label %48, label %52

48:                                               ; preds = %45
  %49 = load ptr, ptr %3, align 8
  %50 = getelementptr inbounds nuw %struct.xcgroup_t, ptr %49, i32 0, i32 2
  %51 = load ptr, ptr %50, align 8
  call void (i32, ptr, ...) @log_var(i32 noundef 4, ptr noundef @.str.23, ptr noundef @plugin_type, ptr noundef @__func__.common_cgroup_delete, ptr noundef %51)
  br label %52

52:                                               ; preds = %48, %45
  br label %53

53:                                               ; preds = %52
  br label %54

54:                                               ; preds = %53
  br label %55

55:                                               ; preds = %54, %40
  br label %56

56:                                               ; preds = %55
  br label %57

57:                                               ; preds = %56
  store i32 -1, ptr %2, align 4
  store i32 1, ptr %7, align 4
  br label %142

58:                                               ; preds = %34
  %59 = load i32, ptr %5, align 4
  %60 = icmp eq i32 %59, -1
  br i1 %60, label %61, label %85

61:                                               ; preds = %58
  %62 = load ptr, ptr %3, align 8
  %63 = call i32 @common_cgroup_get_pids(ptr noundef %62, ptr noundef %6, ptr noundef %5)
  %64 = icmp ne i32 %63, 0
  br i1 %64, label %65, label %66

65:                                               ; preds = %61
  store i32 -1, ptr %2, align 4
  store i32 1, ptr %7, align 4
  br label %142

66:                                               ; preds = %61
  %67 = load i32, ptr %5, align 4
  %68 = icmp sgt i32 %67, 0
  br i1 %68, label %69, label %84

69:                                               ; preds = %66
  call void @slurm_xfree(ptr noundef %6)
  br label %70

70:                                               ; preds = %69
  br label %71

71:                                               ; preds = %70
  %72 = call i32 @get_log_level()
  %73 = icmp sge i32 %72, 7
  br i1 %73, label %74, label %79

74:                                               ; preds = %71
  %75 = load ptr, ptr %3, align 8
  %76 = getelementptr inbounds nuw %struct.xcgroup_t, ptr %75, i32 0, i32 2
  %77 = load ptr, ptr %76, align 8
  %78 = load i32, ptr %5, align 4
  call void (i32, ptr, ...) @log_var(i32 noundef 7, ptr noundef @.str.24, ptr noundef @plugin_type, ptr noundef @__func__.common_cgroup_delete, ptr noundef %77, i32 noundef %78)
  br label %79

79:                                               ; preds = %74, %71
  br label %80

80:                                               ; preds = %79
  br label %81

81:                                               ; preds = %80
  br label %82

82:                                               ; preds = %81
  br label %83

83:                                               ; preds = %82
  store i32 -1, ptr %2, align 4
  store i32 1, ptr %7, align 4
  br label %142

84:                                               ; preds = %66
  br label %85

85:                                               ; preds = %84, %58
  %86 = load i32, ptr %4, align 4
  %87 = icmp slt i32 %86, 5
  br i1 %87, label %88, label %92

88:                                               ; preds = %85
  %89 = call i32 @poll(ptr noundef null, i64 noundef 0, i32 noundef 1000)
  %90 = load i32, ptr %4, align 4
  %91 = add nsw i32 %90, 1
  store i32 %91, ptr %4, align 4
  br label %18, !llvm.loop !17

92:                                               ; preds = %85
  br label %93

93:                                               ; preds = %92
  %94 = load i64, ptr getelementptr inbounds nuw (%struct.slurm_conf_t, ptr @slurm_conf, i32 0, i32 42), align 8
  %95 = and i64 %94, 36028797018963968
  %96 = icmp ne i64 %95, 0
  br i1 %96, label %97, label %109

97:                                               ; preds = %93
  br label %98

98:                                               ; preds = %97
  %99 = call i32 @get_log_level()
  %100 = icmp sge i32 %99, 4
  br i1 %100, label %101, label %106

101:                                              ; preds = %98
  %102 = load ptr, ptr %3, align 8
  %103 = getelementptr inbounds nuw %struct.xcgroup_t, ptr %102, i32 0, i32 2
  %104 = load ptr, ptr %103, align 8
  %105 = load i32, ptr %4, align 4
  call void (i32, ptr, ...) @log_var(i32 noundef 4, ptr noundef @.str.25, ptr noundef @plugin_type, ptr noundef @__func__.common_cgroup_delete, ptr noundef %104, i32 noundef %105)
  br label %106

106:                                              ; preds = %101, %98
  br label %107

107:                                              ; preds = %106
  br label %108

108:                                              ; preds = %107
  br label %109

109:                                              ; preds = %108, %93
  br label %110

110:                                              ; preds = %109
  br label %111

111:                                              ; preds = %110
  br label %117

112:                                              ; preds = %30
  %113 = load ptr, ptr %3, align 8
  %114 = getelementptr inbounds nuw %struct.xcgroup_t, ptr %113, i32 0, i32 2
  %115 = load ptr, ptr %114, align 8
  %116 = call i32 (ptr, ...) @error(ptr noundef @.str.26, ptr noundef %115)
  br label %117

117:                                              ; preds = %112, %111
  store i32 -1, ptr %2, align 4
  store i32 1, ptr %7, align 4
  br label %142

118:                                              ; preds = %28
  %119 = load i32, ptr %4, align 4
  %120 = icmp ne i32 %119, 0
  br i1 %120, label %121, label %141

121:                                              ; preds = %118
  br label %122

122:                                              ; preds = %121
  %123 = load i64, ptr getelementptr inbounds nuw (%struct.slurm_conf_t, ptr @slurm_conf, i32 0, i32 42), align 8
  %124 = and i64 %123, 36028797018963968
  %125 = icmp ne i64 %124, 0
  br i1 %125, label %126, label %138

126:                                              ; preds = %122
  br label %127

127:                                              ; preds = %126
  %128 = call i32 @get_log_level()
  %129 = icmp sge i32 %128, 4
  br i1 %129, label %130, label %135

130:                                              ; preds = %127
  %131 = load ptr, ptr %3, align 8
  %132 = getelementptr inbounds nuw %struct.xcgroup_t, ptr %131, i32 0, i32 2
  %133 = load ptr, ptr %132, align 8
  %134 = load i32, ptr %4, align 4
  call void (i32, ptr, ...) @log_var(i32 noundef 4, ptr noundef @.str.27, ptr noundef @plugin_type, ptr noundef @__func__.common_cgroup_delete, ptr noundef %133, i32 noundef %134)
  br label %135

135:                                              ; preds = %130, %127
  br label %136

136:                                              ; preds = %135
  br label %137

137:                                              ; preds = %136
  br label %138

138:                                              ; preds = %137, %122
  br label %139

139:                                              ; preds = %138
  br label %140

140:                                              ; preds = %139
  br label %141

141:                                              ; preds = %140, %118
  store i32 0, ptr %2, align 4
  store i32 1, ptr %7, align 4
  br label %142

142:                                              ; preds = %141, %117, %83, %65, %57, %15
  call void @llvm.lifetime.end.p0(i64 8, ptr %6) #6
  call void @llvm.lifetime.end.p0(i64 4, ptr %5) #6
  call void @llvm.lifetime.end.p0(i64 4, ptr %4) #6
  %143 = load i32, ptr %2, align 4
  ret i32 %143
}